; Function Attrs: mustprogress nofree norecurse nosync nounwind willreturn memory(read, inaccessiblemem: none) uwtable
define internal { double, double } @_ZL15putp3_s_forward5PJ_LPP8PJconsts(double %0, double %1, ptr noundef readonly captures(none) %2) #3 {
  %4 = fmul double %0, 0x3FE988453365DE00
  %5 = getelementptr inbounds nuw i8, ptr %2, i64 88
  %6 = load ptr, ptr %5, align 8, !tbaa !3
  %7 = load double, ptr %6, align 8, !tbaa !36
  %8 = fneg double %1
  %9 = fmul double %7, %8
  %10 = tail call double @llvm.fmuladd.f64(double %9, double %1, double 1.000000e+00)
  %11 = fmul double %4, %10
  %12 = fmul double %1, 0x3FE988453365DE00
  %.fca.0.insert = insertvalue { double, double } poison, double %11, 0
  %.fca.1.insert = insertvalue { double, double } %.fca.0.insert, double %12, 1
  ret { double, double } %.fca.1.insert
}